target datalayout = "e-m:e-p270:32:32-p271:32:32-p272:64:64-i64:64-i128:128-f80:128-n8:16:32:64-S128"
target triple = "x86_64-pc-linux-gnu"

%struct._e_guid_t = type { i32, i16, i16, [8 x i8] }
%struct.nstime_t = type { i64, i32 }
%struct._packet_info = type { ptr, ptr, i32, i32, %struct.nstime_t, %struct.nstime_t, %struct.nstime_t, i8, ptr, ptr, ptr, ptr, %struct._address, %struct._address, %struct._address, %struct._address, %struct._address, %struct._address, i32, ptr, i8, [3 x i8], %struct.anon, i32, i32, i32, i32, ptr, i8, ptr, ptr, i16, i16, i32, i32, i16, i32, i32, ptr, ptr, ptr, i8, i8, i16, i16, i16, i32, i16, i16, ptr, ptr, ptr, ptr, ptr, i32, i32 }
%struct._address = type { i32, i32, ptr, ptr }
%struct.anon = type { i8, [3 x i8] }
%struct._smb2_info_t = type { i16, i32, i32, i32, i64, i64, i32, ptr, ptr, ptr, ptr, ptr, ptr, ptr }
%struct._smb2_saved_info_t = type { i8, i8, i64, i32, i32, %struct.nstime_t, ptr, ptr, ptr, %struct._e_ctx_hnd, ptr, i64, i32, ptr, i32, i32, i16, ptr, %struct._e_guid_t, i32, i32, ptr }
%struct._e_ctx_hnd = type { i32, %struct._e_guid_t }
%struct._smb2_sesid_info_t = type { i64, i32, ptr, ptr, ptr, i16, i32, i32, [32 x i8], [16 x i8], [16 x i8], [16 x i8], [32 x i8], [32 x i8], ptr, ptr, ptr, [64 x i8] }
%struct._frame_data = type <{ i32, i32, i32, i32, i32, [4 x i8], i64, ptr, ptr, ptr, i8, i16, [5 x i8], %struct.nstime_t, %struct.nstime_t, i32, i32 }>
%struct._smb2_tid_info_t = type { i32, i32, i32, i8, ptr }

@hf_smb2_buffer_code = internal global i32 0, align 4
@hf_smb2_buffer_code_len = internal global i32 0, align 4
@hf_smb2_buffer_code_flags_dyn = internal global i32 0, align 4
@hf_smb2_share_type = internal global i32 0, align 4
@hf_smb2_share_flags = internal global i32 0, align 4
@hf_smb2_share_caching = internal global i32 0, align 4
@hf_smb2_share_caps = internal global i32 0, align 4
@hf_smb2_reserved = internal global i32 0, align 4
@ett_smb2_share_flags = internal global i32 0, align 4
@ett_smb2_share_caps = internal global i32 0, align 4
@ett_smb2_buffercode = internal global i32 0, align 4
@.str.2163 = private unnamed_addr constant [13 x i8] c", Tree: '%s'\00", align 1
@.str.2164 = private unnamed_addr constant [26 x i8] c"Caching policy: %s (%08x)\00", align 1
@.str.2165 = private unnamed_addr constant [11 x i8] c"Unknown:%u\00", align 1

; Function Attrs: null_pointer_is_valid sspstrong uwtable
define internal i32 @dissect_smb2_share_caps(ptr noundef %0, ptr noundef %1, i32 noundef %2) #0 {
  %4 = alloca ptr, align 8
  %5 = alloca ptr, align 8
  %6 = alloca i32, align 4
  store ptr %0, ptr %4, align 8
  store ptr %1, ptr %5, align 8
  store i32 %2, ptr %6, align 4
  %7 = load ptr, ptr %4, align 8
  %8 = load ptr, ptr %5, align 8
  %9 = load i32, ptr %6, align 4
  %10 = load i32, ptr @hf_smb2_share_caps, align 4
  %11 = load i32, ptr @ett_smb2_share_caps, align 4
  %12 = call ptr @proto_tree_add_bitmask(ptr noundef %7, ptr noundef %8, i32 noundef %9, i32 noundef %10, i32 noundef %11, ptr noundef @dissect_smb2_share_caps.sc_fields, i32 noundef -2147483648)
  %13 = load i32, ptr %6, align 4
  %14 = add i32 %13, 4
  store i32 %14, ptr %6, align 4
  %15 = load i32, ptr %6, align 4
  ret i32 %15
}

; Function Attrs: null_pointer_is_valid sspstrong uwtable
define internal i32 @dissect_smb2_share_flags(ptr noundef %0, ptr noundef %1, i32 noundef %2) #0 {
  %4 = alloca ptr, align 8
  %5 = alloca ptr, align 8
  %6 = alloca i32, align 4
  %7 = alloca ptr, align 8
  %8 = alloca i32, align 4
  store ptr %0, ptr %4, align 8
  store ptr %1, ptr %5, align 8
  store i32 %2, ptr %6, align 4
  call void @llvm.lifetime.start.p0(i64 8, ptr %7) #13
  store ptr null, ptr %7, align 8
  call void @llvm.lifetime.start.p0(i64 4, ptr %8) #13
  %9 = load ptr, ptr %4, align 8
  %10 = load ptr, ptr %5, align 8
  %11 = load i32, ptr %6, align 4
  %12 = load i32, ptr @hf_smb2_share_flags, align 4
  %13 = load i32, ptr @ett_smb2_share_flags, align 4
  %14 = call ptr @proto_tree_add_bitmask(ptr noundef %9, ptr noundef %10, i32 noundef %11, i32 noundef %12, i32 noundef %13, ptr noundef @dissect_smb2_share_flags.sf_fields, i32 noundef -2147483648)
  store ptr %14, ptr %7, align 8
  %15 = load ptr, ptr %5, align 8
  %16 = load i32, ptr %6, align 4
  %17 = call i32 @tvb_get_letohl(ptr noundef %15, i32 noundef %16)
  store i32 %17, ptr %8, align 4
  %18 = load i32, ptr %8, align 4
  %19 = and i32 %18, 48
  store i32 %19, ptr %8, align 4
  %20 = load ptr, ptr %7, align 8
  %21 = load i32, ptr @hf_smb2_share_caching, align 4
  %22 = load ptr, ptr %5, align 8
  %23 = load i32, ptr %6, align 4
  %24 = load i32, ptr %8, align 4
  %25 = load i32, ptr %8, align 4
  %26 = call ptr @val_to_str(i32 noundef %25, ptr noundef @share_cache_vals, ptr noundef @.str.2165)
  %27 = load i32, ptr %8, align 4
  %28 = call ptr (ptr, i32, ptr, i32, i32, i32, ptr, ...) @proto_tree_add_uint_format(ptr noundef %20, i32 noundef %21, ptr noundef %22, i32 noundef %23, i32 noundef 4, i32 noundef %24, ptr noundef @.str.2164, ptr noundef %26, i32 noundef %27)
  %29 = load i32, ptr %6, align 4
  %30 = add i32 %29, 4
  store i32 %30, ptr %6, align 4
  %31 = load i32, ptr %6, align 4
  call void @llvm.lifetime.end.p0(i64 4, ptr %8) #13
  call void @llvm.lifetime.end.p0(i64 8, ptr %7) #13
  ret i32 %31
}

; Function Attrs: null_pointer_is_valid sspstrong uwtable
define internal i32 @dissect_smb2_buffercode(ptr noundef %0, ptr noundef %1, i32 noundef %2, ptr noundef %3) #0 {
  %5 = alloca ptr, align 8
  %6 = alloca ptr, align 8
  %7 = alloca i32, align 4
  %8 = alloca ptr, align 8
  %9 = alloca ptr, align 8
  %10 = alloca ptr, align 8
  %11 = alloca i16, align 2
  store ptr %0, ptr %5, align 8
  store ptr %1, ptr %6, align 8
  store i32 %2, ptr %7, align 4
  store ptr %3, ptr %8, align 8
  call void @llvm.lifetime.start.p0(i64 8, ptr %9) #13
  call void @llvm.lifetime.start.p0(i64 8, ptr %10) #13
  store ptr null, ptr %10, align 8
  call void @llvm.lifetime.start.p0(i64 2, ptr %11) #13
  %12 = load ptr, ptr %6, align 8
  %13 = load i32, ptr %7, align 4
  %14 = call zeroext i16 @tvb_get_letohs(ptr noundef %12, i32 noundef %13)
  store i16 %14, ptr %11, align 2
  %15 = load ptr, ptr %5, align 8
  %16 = load i32, ptr @hf_smb2_buffer_code, align 4
  %17 = load ptr, ptr %6, align 8
  %18 = load i32, ptr %7, align 4
  %19 = load i16, ptr %11, align 2
  %20 = zext i16 %19 to i32
  %21 = call ptr @proto_tree_add_uint(ptr noundef %15, i32 noundef %16, ptr noundef %17, i32 noundef %18, i32 noundef 2, i32 noundef %20)
  store ptr %21, ptr %10, align 8
  %22 = load ptr, ptr %10, align 8
  %23 = load i32, ptr @ett_smb2_buffercode, align 4
  %24 = call ptr @proto_item_add_subtree(ptr noundef %22, i32 noundef %23)
  store ptr %24, ptr %9, align 8
  %25 = load ptr, ptr %9, align 8
  %26 = load i32, ptr @hf_smb2_buffer_code_len, align 4
  %27 = load ptr, ptr %6, align 8
  %28 = load i32, ptr %7, align 4
  %29 = call ptr @proto_tree_add_item(ptr noundef %25, i32 noundef %26, ptr noundef %27, i32 noundef %28, i32 noundef 2, i32 noundef -2147483648)
  %30 = load ptr, ptr %9, align 8
  %31 = load i32, ptr @hf_smb2_buffer_code_flags_dyn, align 4
  %32 = load ptr, ptr %6, align 8
  %33 = load i32, ptr %7, align 4
  %34 = call ptr @proto_tree_add_item(ptr noundef %30, i32 noundef %31, ptr noundef %32, i32 noundef %33, i32 noundef 2, i32 noundef -2147483648)
  %35 = load i32, ptr %7, align 4
  %36 = add i32 %35, 2
  store i32 %36, ptr %7, align 4
  %37 = load ptr, ptr %8, align 8
  %38 = icmp ne ptr %37, null
  br i1 %38, label %39, label %42

39:                                               ; preds = %4
  %40 = load i16, ptr %11, align 2
  %41 = load ptr, ptr %8, align 8
  store i16 %40, ptr %41, align 2
  br label %42

42:                                               ; preds = %39, %4
  %43 = load i32, ptr %7, align 4
  call void @llvm.lifetime.end.p0(i64 2, ptr %11) #13
  call void @llvm.lifetime.end.p0(i64 8, ptr %10) #13
  call void @llvm.lifetime.end.p0(i64 8, ptr %9) #13
  ret i32 %43
}

; Function Attrs: null_pointer_is_valid sspstrong uwtable
define internal i32 @dissect_smb2_tree_connect_response(ptr noundef %0, ptr noundef %1, ptr noundef %2, i32 noundef %3, ptr noundef %4) #0 {
  %6 = alloca i32, align 4
  %7 = alloca ptr, align 8
  %8 = alloca ptr, align 8
  %9 = alloca ptr, align 8
  %10 = alloca i32, align 4
  %11 = alloca ptr, align 8
  %12 = alloca i8, align 1
  %13 = alloca i8, align 1
  %14 = alloca i32, align 4
  %15 = alloca ptr, align 8
  %16 = alloca %struct._smb2_tid_info_t, align 8
  store ptr %0, ptr %7, align 8
  store ptr %1, ptr %8, align 8
  store ptr %2, ptr %9, align 8
  store i32 %3, ptr %10, align 4
  store ptr %4, ptr %11, align 8
  call void @llvm.lifetime.start.p0(i64 1, ptr %12) #13
  call void @llvm.lifetime.start.p0(i64 1, ptr %13) #13
  %17 = load ptr, ptr %11, align 8
  %18 = getelementptr inbounds nuw %struct._smb2_info_t, ptr %17, i32 0, i32 2
  %19 = load i32, ptr %18, align 8
  switch i32 %19, label %25 [
    i32 0, label %20
  ]

20:                                               ; preds = %5
  %21 = load ptr, ptr %9, align 8
  %22 = load ptr, ptr %7, align 8
  %23 = load i32, ptr %10, align 4
  %24 = call i32 @dissect_smb2_buffercode(ptr noundef %21, ptr noundef %22, i32 noundef %23, ptr noundef null)
  store i32 %24, ptr %10, align 4
  br label %37

25:                                               ; preds = %5
  %26 = load ptr, ptr %7, align 8
  %27 = load ptr, ptr %8, align 8
  %28 = load ptr, ptr %9, align 8
  %29 = load i32, ptr %10, align 4
  %30 = load ptr, ptr %11, align 8
  %31 = call i32 @dissect_smb2_error_response(ptr noundef %26, ptr noundef %27, ptr noundef %28, i32 noundef %29, ptr noundef %30, ptr noundef %13)
  store i32 %31, ptr %10, align 4
  %32 = load i8, ptr %13, align 1, !range !6, !noundef !7
  %33 = trunc i8 %32 to i1
  br i1 %33, label %36, label %34

34:                                               ; preds = %25
  %35 = load i32, ptr %10, align 4
  store i32 %35, ptr %6, align 4
  store i32 1, ptr %14, align 4
  br label %170

36:                                               ; preds = %25
  br label %37

37:                                               ; preds = %36, %20
  %38 = load ptr, ptr %7, align 8
  %39 = load i32, ptr %10, align 4
  %40 = call zeroext i8 @tvb_get_uint8(ptr noundef %38, i32 noundef %39)
  store i8 %40, ptr %12, align 1
  %41 = load ptr, ptr %9, align 8
  %42 = load i32, ptr @hf_smb2_share_type, align 4
  %43 = load ptr, ptr %7, align 8
  %44 = load i32, ptr %10, align 4
  %45 = call ptr @proto_tree_add_item(ptr noundef %41, i32 noundef %42, ptr noundef %43, i32 noundef %44, i32 noundef 1, i32 noundef -2147483648)
  %46 = load i32, ptr %10, align 4
  %47 = add i32 %46, 1
  store i32 %47, ptr %10, align 4
  %48 = load ptr, ptr %9, align 8
  %49 = load i32, ptr @hf_smb2_reserved, align 4
  %50 = load ptr, ptr %7, align 8
  %51 = load i32, ptr %10, align 4
  %52 = call ptr @proto_tree_add_item(ptr noundef %48, i32 noundef %49, ptr noundef %50, i32 noundef %51, i32 noundef 1, i32 noundef 0)
  %53 = load i32, ptr %10, align 4
  %54 = add i32 %53, 1
  store i32 %54, ptr %10, align 4
  %55 = load ptr, ptr %8, align 8
  %56 = getelementptr inbounds nuw %struct._packet_info, ptr %55, i32 0, i32 8
  %57 = load ptr, ptr %56, align 8
  %58 = getelementptr inbounds nuw %struct._frame_data, ptr %57, i32 0, i32 11
  %59 = load i16, ptr %58, align 1
  %60 = lshr i16 %59, 3
  %61 = and i16 %60, 1
  %62 = zext i16 %61 to i32
  %63 = icmp ne i32 %62, 0
  br i1 %63, label %142, label %64

64:                                               ; preds = %37
  %65 = load ptr, ptr %11, align 8
  %66 = getelementptr inbounds nuw %struct._smb2_info_t, ptr %65, i32 0, i32 9
  %67 = load ptr, ptr %66, align 8
  %68 = icmp ne ptr %67, null
  br i1 %68, label %69, label %142

69:                                               ; preds = %64
  %70 = load ptr, ptr %11, align 8
  %71 = getelementptr inbounds nuw %struct._smb2_info_t, ptr %70, i32 0, i32 9
  %72 = load ptr, ptr %71, align 8
  %73 = getelementptr inbounds nuw %struct._smb2_saved_info_t, ptr %72, i32 0, i32 14
  %74 = load i32, ptr %73, align 8
  %75 = icmp eq i32 %74, 1
  br i1 %75, label %76, label %142

76:                                               ; preds = %69
  %77 = load ptr, ptr %11, align 8
  %78 = getelementptr inbounds nuw %struct._smb2_info_t, ptr %77, i32 0, i32 11
  %79 = load ptr, ptr %78, align 8
  %80 = icmp ne ptr %79, null
  br i1 %80, label %81, label %142

81:                                               ; preds = %76
  call void @llvm.lifetime.start.p0(i64 8, ptr %15) #13
  call void @llvm.lifetime.start.p0(i64 24, ptr %16) #13
  %82 = load ptr, ptr %11, align 8
  %83 = getelementptr inbounds nuw %struct._smb2_info_t, ptr %82, i32 0, i32 3
  %84 = load i32, ptr %83, align 4
  %85 = getelementptr inbounds nuw %struct._smb2_tid_info_t, ptr %16, i32 0, i32 0
  store i32 %84, ptr %85, align 8
  %86 = load ptr, ptr %11, align 8
  %87 = getelementptr inbounds nuw %struct._smb2_info_t, ptr %86, i32 0, i32 11
  %88 = load ptr, ptr %87, align 8
  %89 = getelementptr inbounds nuw %struct._smb2_sesid_info_t, ptr %88, i32 0, i32 14
  %90 = load ptr, ptr %89, align 8
  %91 = call ptr @wmem_map_lookup(ptr noundef %90, ptr noundef %16)
  store ptr %91, ptr %15, align 8
  %92 = load ptr, ptr %15, align 8
  %93 = icmp ne ptr %92, null
  br i1 %93, label %94, label %101

94:                                               ; preds = %81
  %95 = load ptr, ptr %11, align 8
  %96 = getelementptr inbounds nuw %struct._smb2_info_t, ptr %95, i32 0, i32 11
  %97 = load ptr, ptr %96, align 8
  %98 = getelementptr inbounds nuw %struct._smb2_sesid_info_t, ptr %97, i32 0, i32 14
  %99 = load ptr, ptr %98, align 8
  %100 = call ptr @wmem_map_remove(ptr noundef %99, ptr noundef %16)
  br label %101

101:                                              ; preds = %94, %81
  %102 = call ptr @wmem_file_scope()
  %103 = call noalias ptr @wmem_alloc(ptr noundef %102, i64 noundef 24) #14
  store ptr %103, ptr %15, align 8
  %104 = load ptr, ptr %11, align 8
  %105 = getelementptr inbounds nuw %struct._smb2_info_t, ptr %104, i32 0, i32 3
  %106 = load i32, ptr %105, align 4
  %107 = load ptr, ptr %15, align 8
  %108 = getelementptr inbounds nuw %struct._smb2_tid_info_t, ptr %107, i32 0, i32 0
  store i32 %106, ptr %108, align 8
  %109 = load ptr, ptr %11, align 8
  %110 = getelementptr inbounds nuw %struct._smb2_info_t, ptr %109, i32 0, i32 9
  %111 = load ptr, ptr %110, align 8
  %112 = getelementptr inbounds nuw %struct._smb2_saved_info_t, ptr %111, i32 0, i32 13
  %113 = load ptr, ptr %112, align 8
  %114 = load ptr, ptr %15, align 8
  %115 = getelementptr inbounds nuw %struct._smb2_tid_info_t, ptr %114, i32 0, i32 4
  store ptr %113, ptr %115, align 8
  %116 = load ptr, ptr %8, align 8
  %117 = getelementptr inbounds nuw %struct._packet_info, ptr %116, i32 0, i32 3
  %118 = load i32, ptr %117, align 4
  %119 = load ptr, ptr %15, align 8
  %120 = getelementptr inbounds nuw %struct._smb2_tid_info_t, ptr %119, i32 0, i32 1
  store i32 %118, ptr %120, align 4
  %121 = load ptr, ptr %15, align 8
  %122 = getelementptr inbounds nuw %struct._smb2_tid_info_t, ptr %121, i32 0, i32 2
  store i32 0, ptr %122, align 8
  %123 = load i8, ptr %12, align 1
  %124 = load ptr, ptr %15, align 8
  %125 = getelementptr inbounds nuw %struct._smb2_tid_info_t, ptr %124, i32 0, i32 3
  store i8 %123, ptr %125, align 4
  %126 = load ptr, ptr %11, align 8
  %127 = getelementptr inbounds nuw %struct._smb2_info_t, ptr %126, i32 0, i32 11
  %128 = load ptr, ptr %127, align 8
  %129 = getelementptr inbounds nuw %struct._smb2_sesid_info_t, ptr %128, i32 0, i32 14
  %130 = load ptr, ptr %129, align 8
  %131 = load ptr, ptr %15, align 8
  %132 = load ptr, ptr %15, align 8
  %133 = call ptr @wmem_map_insert(ptr noundef %130, ptr noundef %131, ptr noundef %132)
  %134 = load ptr, ptr %11, align 8
  %135 = getelementptr inbounds nuw %struct._smb2_info_t, ptr %134, i32 0, i32 9
  %136 = load ptr, ptr %135, align 8
  %137 = getelementptr inbounds nuw %struct._smb2_saved_info_t, ptr %136, i32 0, i32 14
  store i32 0, ptr %137, align 8
  %138 = load ptr, ptr %11, align 8
  %139 = getelementptr inbounds nuw %struct._smb2_info_t, ptr %138, i32 0, i32 9
  %140 = load ptr, ptr %139, align 8
  %141 = getelementptr inbounds nuw %struct._smb2_saved_info_t, ptr %140, i32 0, i32 13
  store ptr null, ptr %141, align 8
  call void @llvm.lifetime.end.p0(i64 24, ptr %16) #13
  call void @llvm.lifetime.end.p0(i64 8, ptr %15) #13
  br label %142

142:                                              ; preds = %101, %76, %69, %64, %37
  %143 = load ptr, ptr %11, align 8
  %144 = getelementptr inbounds nuw %struct._smb2_info_t, ptr %143, i32 0, i32 10
  %145 = load ptr, ptr %144, align 8
  %146 = icmp ne ptr %145, null
  br i1 %146, label %147, label %156

147:                                              ; preds = %142
  %148 = load ptr, ptr %8, align 8
  %149 = getelementptr inbounds nuw %struct._packet_info, ptr %148, i32 0, i32 1
  %150 = load ptr, ptr %149, align 8
  %151 = load ptr, ptr %11, align 8
  %152 = getelementptr inbounds nuw %struct._smb2_info_t, ptr %151, i32 0, i32 10
  %153 = load ptr, ptr %152, align 8
  %154 = getelementptr inbounds nuw %struct._smb2_tid_info_t, ptr %153, i32 0, i32 4
  %155 = load ptr, ptr %154, align 8
  call void (ptr, i32, ptr, ...) @col_append_fstr(ptr noundef %150, i32 noundef 25, ptr noundef @.str.2163, ptr noundef %155)
  br label %156

156:                                              ; preds = %147, %142
  %157 = load ptr, ptr %9, align 8
  %158 = load ptr, ptr %7, align 8
  %159 = load i32, ptr %10, align 4
  %160 = call i32 @dissect_smb2_share_flags(ptr noundef %157, ptr noundef %158, i32 noundef %159)
  store i32 %160, ptr %10, align 4
  %161 = load ptr, ptr %9, align 8
  %162 = load ptr, ptr %7, align 8
  %163 = load i32, ptr %10, align 4
  %164 = call i32 @dissect_smb2_share_caps(ptr noundef %161, ptr noundef %162, i32 noundef %163)
  store i32 %164, ptr %10, align 4
  %165 = load ptr, ptr %7, align 8
  %166 = load ptr, ptr %9, align 8
  %167 = load i32, ptr %10, align 4
  %168 = call i32 @dissect_smb_access_mask(ptr noundef %165, ptr noundef %166, i32 noundef %167)
  store i32 %168, ptr %10, align 4
  %169 = load i32, ptr %10, align 4
  store i32 %169, ptr %6, align 4
  store i32 1, ptr %14, align 4
  br label %170

170:                                              ; preds = %156, %34
  call void @llvm.lifetime.end.p0(i64 1, ptr %13) #13
  call void @llvm.lifetime.end.p0(i64 1, ptr %12) #13
  %171 = load i32, ptr %6, align 4
  ret i32 %171
}