; Function Attrs: null_pointer_is_valid sspstrong uwtable
define internal i32 @dissect_smb2_tree_connect_response(ptr noundef %0, ptr noundef %1, ptr noundef %2, i32 noundef %3, ptr noundef readonly captures(none) %4) #0 {
  %6 = alloca i8, align 1
  %7 = alloca %struct._smb2_tid_info_t, align 8
  call void @llvm.lifetime.start.p0(i64 1, ptr nonnull %6) #13
  %8 = getelementptr inbounds nuw i8, ptr %4, i64 8
  %9 = load i32, ptr %8, align 8
  %cond = icmp eq i32 %9, 0
  br i1 %cond, label %10, label %22

10:                                               ; preds = %5
  %11 = tail call zeroext i16 @tvb_get_letohs(ptr noundef %0, i32 noundef %3)
  %12 = load i32, ptr @hf_smb2_buffer_code, align 4
  %13 = zext i16 %11 to i32
  %14 = tail call ptr @proto_tree_add_uint(ptr noundef %2, i32 noundef %12, ptr noundef %0, i32 noundef %3, i32 noundef 2, i32 noundef %13)
  %15 = load i32, ptr @ett_smb2_buffercode, align 4
  %16 = tail call ptr @proto_item_add_subtree(ptr noundef %14, i32 noundef %15)
  %17 = load i32, ptr @hf_smb2_buffer_code_len, align 4
  %18 = tail call ptr @proto_tree_add_item(ptr noundef %16, i32 noundef %17, ptr noundef %0, i32 noundef %3, i32 noundef 2, i32 noundef -2147483648)
  %19 = load i32, ptr @hf_smb2_buffer_code_flags_dyn, align 4
  %20 = tail call ptr @proto_tree_add_item(ptr noundef %16, i32 noundef %19, ptr noundef %0, i32 noundef %3, i32 noundef 2, i32 noundef -2147483648)
  %21 = add i32 %3, 2
  br label %26

22:                                               ; preds = %5
  %23 = call fastcc i32 @dissect_smb2_error_response(ptr noundef %0, ptr noundef %1, ptr noundef %2, i32 noundef %3, ptr noundef %4, ptr noundef nonnull %6)
  %24 = load i8, ptr %6, align 1, !range !13, !noundef !14
  %25 = trunc nuw i8 %24 to i1
  br i1 %25, label %26, label %104

26:                                               ; preds = %22, %10
  %.055 = phi i32 [ %21, %10 ], [ %23, %22 ]
  %27 = call zeroext i8 @tvb_get_uint8(ptr noundef %0, i32 noundef %.055)
  %28 = load i32, ptr @hf_smb2_share_type, align 4
  %29 = call ptr @proto_tree_add_item(ptr noundef %2, i32 noundef %28, ptr noundef %0, i32 noundef %.055, i32 noundef 1, i32 noundef -2147483648)
  %30 = add i32 %.055, 1
  %31 = load i32, ptr @hf_smb2_reserved, align 4
  %32 = call ptr @proto_tree_add_item(ptr noundef %2, i32 noundef %31, ptr noundef %0, i32 noundef %30, i32 noundef 1, i32 noundef 0)
  %33 = add i32 %.055, 2
  %34 = getelementptr inbounds nuw i8, ptr %1, i64 80
  %35 = load ptr, ptr %34, align 8
  %36 = getelementptr inbounds nuw i8, ptr %35, i64 57
  %37 = load i16, ptr %36, align 1
  %38 = and i16 %37, 8
  %.not = icmp eq i16 %38, 0
  br i1 %.not, label %39, label %81

39:                                               ; preds = %26
  %40 = getelementptr inbounds nuw i8, ptr %4, i64 56
  %41 = load ptr, ptr %40, align 8
  %.not58 = icmp eq ptr %41, null
  br i1 %.not58, label %81, label %42

42:                                               ; preds = %39
  %43 = getelementptr inbounds nuw i8, ptr %41, i64 120
  %44 = load i32, ptr %43, align 8
  %45 = icmp eq i32 %44, 1
  br i1 %45, label %46, label %81

46:                                               ; preds = %42
  %47 = getelementptr inbounds nuw i8, ptr %4, i64 72
  %48 = load ptr, ptr %47, align 8
  %.not59 = icmp eq ptr %48, null
  br i1 %.not59, label %81, label %49

49:                                               ; preds = %46
  call void @llvm.lifetime.start.p0(i64 24, ptr nonnull %7) #13
  %50 = getelementptr inbounds nuw i8, ptr %4, i64 12
  %51 = load i32, ptr %50, align 4
  store i32 %51, ptr %7, align 8
  %52 = getelementptr inbounds nuw i8, ptr %48, i64 200
  %53 = load ptr, ptr %52, align 8
  %54 = call ptr @wmem_map_lookup(ptr noundef %53, ptr noundef nonnull %7)
  %.not60 = icmp eq ptr %54, null
  br i1 %.not60, label %60, label %55

55:                                               ; preds = %49
  %56 = load ptr, ptr %47, align 8
  %57 = getelementptr inbounds nuw i8, ptr %56, i64 200
  %58 = load ptr, ptr %57, align 8
  %59 = call ptr @wmem_map_remove(ptr noundef %58, ptr noundef nonnull %7)
  br label %60

60:                                               ; preds = %55, %49
  %61 = call ptr @wmem_file_scope()
  %62 = call noalias dereferenceable_or_null(24) ptr @wmem_alloc(ptr noundef %61, i64 noundef 24) #14
  %63 = load i32, ptr %50, align 4
  store i32 %63, ptr %62, align 8
  %64 = load ptr, ptr %40, align 8
  %65 = getelementptr inbounds nuw i8, ptr %64, i64 112
  %66 = load ptr, ptr %65, align 8
  %67 = getelementptr inbounds nuw i8, ptr %62, i64 16
  store ptr %66, ptr %67, align 8
  %68 = getelementptr inbounds nuw i8, ptr %1, i64 20
  %69 = load i32, ptr %68, align 4
  %70 = getelementptr inbounds nuw i8, ptr %62, i64 4
  store i32 %69, ptr %70, align 4
  %71 = getelementptr inbounds nuw i8, ptr %62, i64 8
  store i32 0, ptr %71, align 8
  %72 = getelementptr inbounds nuw i8, ptr %62, i64 12
  store i8 %27, ptr %72, align 4
  %73 = load ptr, ptr %47, align 8
  %74 = getelementptr inbounds nuw i8, ptr %73, i64 200
  %75 = load ptr, ptr %74, align 8
  %76 = call ptr @wmem_map_insert(ptr noundef %75, ptr noundef %62, ptr noundef %62)
  %77 = load ptr, ptr %40, align 8
  %78 = getelementptr inbounds nuw i8, ptr %77, i64 120
  store i32 0, ptr %78, align 8
  %79 = load ptr, ptr %40, align 8
  %80 = getelementptr inbounds nuw i8, ptr %79, i64 112
  store ptr null, ptr %80, align 8
  call void @llvm.lifetime.end.p0(i64 24, ptr nonnull %7) #13
  br label %81

81:                                               ; preds = %60, %46, %42, %39, %26
  %82 = getelementptr inbounds nuw i8, ptr %4, i64 64
  %83 = load ptr, ptr %82, align 8
  %.not61 = icmp eq ptr %83, null
  br i1 %.not61, label %89, label %84

84:                                               ; preds = %81
  %85 = getelementptr inbounds nuw i8, ptr %1, i64 8
  %86 = load ptr, ptr %85, align 8
  %87 = getelementptr inbounds nuw i8, ptr %83, i64 16
  %88 = load ptr, ptr %87, align 8
  call void (ptr, i32, ptr, ...) @col_append_fstr(ptr noundef %86, i32 noundef 25, ptr noundef nonnull @.str.2163, ptr noundef %88)
  br label %89

89:                                               ; preds = %84, %81
  %90 = load i32, ptr @hf_smb2_share_flags, align 4
  %91 = load i32, ptr @ett_smb2_share_flags, align 4
  %92 = call ptr @proto_tree_add_bitmask(ptr noundef %2, ptr noundef %0, i32 noundef %33, i32 noundef %90, i32 noundef %91, ptr noundef nonnull @dissect_smb2_share_flags.sf_fields, i32 noundef -2147483648)
  %93 = call i32 @tvb_get_letohl(ptr noundef %0, i32 noundef %33)
  %94 = and i32 %93, 48
  %95 = load i32, ptr @hf_smb2_share_caching, align 4
  %96 = call ptr @val_to_str(i32 noundef %94, ptr noundef nonnull @share_cache_vals, ptr noundef nonnull @.str.2165)
  %97 = call ptr (ptr, i32, ptr, i32, i32, i32, ptr, ...) @proto_tree_add_uint_format(ptr noundef %92, i32 noundef %95, ptr noundef %0, i32 noundef %33, i32 noundef 4, i32 noundef %94, ptr noundef nonnull @.str.2164, ptr noundef %96, i32 noundef %94)
  %98 = add i32 %.055, 6
  %99 = load i32, ptr @hf_smb2_share_caps, align 4
  %100 = load i32, ptr @ett_smb2_share_caps, align 4
  %101 = call ptr @proto_tree_add_bitmask(ptr noundef %2, ptr noundef %0, i32 noundef %98, i32 noundef %99, i32 noundef %100, ptr noundef nonnull @dissect_smb2_share_caps.sc_fields, i32 noundef -2147483648)
  %102 = add i32 %.055, 10
  %103 = call i32 @dissect_smb_access_mask(ptr noundef %0, ptr noundef %2, i32 noundef %102)
  br label %104

104:                                              ; preds = %22, %89
  %.0 = phi i32 [ %103, %89 ], [ %23, %22 ]
  call void @llvm.lifetime.end.p0(i64 1, ptr nonnull %6) #13
  ret i32 %.0
}